target datalayout = "e-m:e-p270:32:32-p271:32:32-p272:64:64-i64:64-i128:128-f80:128-n8:16:32:64-S128"
target triple = "x86_64-pc-linux-gnu"

%struct._h248_package_t = type { i32, ptr, ptr, ptr, ptr, ptr, ptr, ptr, ptr, ptr, ptr }
%struct._h248_curr_info_t = type { ptr, ptr, ptr, ptr, ptr, ptr, ptr, ptr, ptr, ptr }
%struct._h248_pkg_evt_t = type { i32, ptr, ptr, ptr, ptr }
%struct._packet_info = type { ptr, ptr, i32, i32, %struct.nstime_t, %struct.nstime_t, %struct.nstime_t, i32, ptr, ptr, ptr, ptr, %struct._address, %struct._address, %struct._address, %struct._address, %struct._address, %struct._address, i32, ptr, i32, %struct.anon, i32, i32, i32, i32, ptr, i32, ptr, ptr, i16, i16, i32, i32, i16, i32, i32, ptr, ptr, ptr, i8, i8, i16, i16, i16, i32, i16, i16, ptr, ptr, ptr, ptr, ptr, i32 }
%struct.nstime_t = type { i64, i32 }
%struct._address = type { i32, i32, ptr, ptr }
%struct.anon = type { i8, [3 x i8] }
%struct._asn1_ctx_t = type { i32, i32, i8, ptr, ptr, ptr, ptr, ptr, %struct.anon.2, %struct.anon.5, %struct.anon.6, ptr }
%struct.anon.2 = type { i32, i8, i8, i8, ptr, ptr, i32, i32, ptr, ptr, ptr, %union.anon }
%union.anon = type { %struct.anon.3 }
%struct.anon.3 = type { ptr }
%struct.anon.5 = type { ptr, ptr, ptr }
%struct.anon.6 = type { i32, i8, ptr, i32, i32, ptr, ptr, ptr, %union.anon.7 }
%union.anon.7 = type { %struct.anon.8 }
%struct.anon.8 = type { ptr }
%struct._save_h248_package_t = type { ptr, i32 }

@.str.41 = private unnamed_addr constant [12 x i8] c"  %s (%04x)\00", align 1
@.str.42 = private unnamed_addr constant [16 x i8] c"Unknown Package\00", align 1
@ett_packagename = internal global i32 0, align 4
@hf_h248_pkg_name = internal global i32 0, align 4
@.str.43 = private unnamed_addr constant [12 x i8] c"%s (0x%04x)\00", align 1
@.str.44 = private unnamed_addr constant [8 x i8] c"%s (%d)\00", align 1
@.str.45 = private unnamed_addr constant [13 x i8] c"Unknown (%d)\00", align 1
@packages = internal global ptr null, align 8
@hf_h248_event_code = internal global i32 0, align 4
@no_package = internal constant %struct._h248_package_t { i32 65535, ptr @hf_h248_no_pkg, ptr @ett_h248_no_pkg, ptr null, ptr null, ptr null, ptr null, ptr null, ptr null, ptr null, ptr null }, align 8
@curr_info = internal global %struct._h248_curr_info_t zeroinitializer, align 8
@packageandid = internal global i32 0, align 4
@no_event = internal constant %struct._h248_pkg_evt_t { i32 0, ptr @hf_h248_no_evt, ptr @ett_h248_no_evt, ptr null, ptr null }, align 8
@.str.1320 = private unnamed_addr constant [13 x i8] c"Event ID: %s\00", align 1

; Function Attrs: nounwind uwtable
define internal ptr @s_find_package_id(i16 noundef zeroext %0) #0 {
  %2 = alloca i16, align 2
  %3 = alloca ptr, align 8
  store i16 %0, ptr %2, align 2
  store ptr null, ptr %3, align 8
  %4 = load ptr, ptr @packages, align 8
  %5 = load i16, ptr %2, align 2
  %6 = zext i16 %5 to i32
  %7 = call ptr @wmem_tree_lookup32(ptr noundef %4, i32 noundef %6)
  store ptr %7, ptr %3, align 8
  %8 = load ptr, ptr %3, align 8
  ret ptr %8
}

; Function Attrs: nounwind uwtable
define internal ptr @find_package_id(i16 noundef zeroext %0) #0 {
  %2 = alloca ptr, align 8
  %3 = alloca i16, align 2
  %4 = alloca ptr, align 8
  store i16 %0, ptr %3, align 2
  store ptr null, ptr %4, align 8
  %5 = load i16, ptr %3, align 2
  %6 = call ptr @s_find_package_id(i16 noundef zeroext %5)
  store ptr %6, ptr %4, align 8
  %7 = load ptr, ptr %4, align 8
  %8 = icmp ne ptr %7, null
  br i1 %8, label %10, label %9

9:                                                ; preds = %1
  store ptr @no_package, ptr %2, align 8
  br label %14

10:                                               ; preds = %1
  %11 = load ptr, ptr %4, align 8
  %12 = getelementptr inbounds %struct._save_h248_package_t, ptr %11, i32 0, i32 0
  %13 = load ptr, ptr %12, align 8
  store ptr %13, ptr %2, align 8
  br label %14

14:                                               ; preds = %10, %9
  %15 = load ptr, ptr %2, align 8
  ret ptr %15
}

; Function Attrs: nounwind uwtable
define internal i32 @dissect_h248_EventName(i1 noundef zeroext %0, ptr noundef %1, i32 noundef %2, ptr noundef %3, ptr noundef %4, i32 noundef %5) #0 {
  %7 = alloca i8, align 1
  %8 = alloca ptr, align 8
  %9 = alloca i32, align 4
  %10 = alloca ptr, align 8
  %11 = alloca ptr, align 8
  %12 = alloca i32, align 4
  %13 = alloca ptr, align 8
  %14 = alloca ptr, align 8
  %15 = alloca i16, align 2
  %16 = alloca i16, align 2
  %17 = alloca ptr, align 8
  %18 = alloca ptr, align 8
  %19 = alloca ptr, align 8
  %20 = alloca ptr, align 8
  %21 = zext i1 %0 to i8
  store i8 %21, ptr %7, align 1
  store ptr %1, ptr %8, align 8
  store i32 %2, ptr %9, align 4
  store ptr %3, ptr %10, align 8
  store ptr %4, ptr %11, align 8
  store i32 %5, ptr %12, align 4
  store ptr null, ptr %14, align 8
  store ptr null, ptr %17, align 8
  store ptr null, ptr %18, align 8
  %22 = load i8, ptr %7, align 1
  %23 = trunc i8 %22 to i1
  %24 = load ptr, ptr %10, align 8
  %25 = load ptr, ptr %11, align 8
  %26 = load ptr, ptr %8, align 8
  %27 = load i32, ptr %9, align 4
  %28 = load i32, ptr %12, align 4
  %29 = call i32 @dissect_ber_octet_string(i1 noundef zeroext %23, ptr noundef %24, ptr noundef %25, ptr noundef %26, i32 noundef %27, i32 noundef %28, ptr noundef %13)
  store i32 %29, ptr %9, align 4
  %30 = load ptr, ptr %13, align 8
  %31 = icmp ne ptr %30, null
  br i1 %31, label %32, label %157

32:                                               ; preds = %6
  %33 = load ptr, ptr %13, align 8
  %34 = call zeroext i16 @tvb_get_ntohs(ptr noundef %33, i32 noundef 0)
  store i16 %34, ptr %15, align 2
  %35 = load ptr, ptr %13, align 8
  %36 = call zeroext i16 @tvb_get_ntohs(ptr noundef %35, i32 noundef 2)
  store i16 %36, ptr %16, align 2
  %37 = load i16, ptr %15, align 2
  %38 = zext i16 %37 to i32
  %39 = shl i32 %38, 16
  %40 = load i16, ptr %16, align 2
  %41 = zext i16 %40 to i32
  %42 = or i32 %39, %41
  store i32 %42, ptr @packageandid, align 4
  %43 = load i16, ptr %15, align 2
  %44 = call ptr @find_package_id(i16 noundef zeroext %43)
  store ptr %44, ptr %17, align 8
  %45 = load ptr, ptr %10, align 8
  %46 = getelementptr inbounds %struct._asn1_ctx_t, ptr %45, i32 0, i32 4
  %47 = load ptr, ptr %46, align 8
  %48 = load ptr, ptr %17, align 8
  %49 = getelementptr inbounds %struct._h248_package_t, ptr %48, i32 0, i32 3
  %50 = load ptr, ptr %49, align 8
  %51 = call ptr @val_to_str_const(i32 noundef 0, ptr noundef %50, ptr noundef @.str.42)
  %52 = load i16, ptr %15, align 2
  %53 = zext i16 %52 to i32
  call void (ptr, ptr, ...) @proto_item_append_text(ptr noundef %47, ptr noundef @.str.41, ptr noundef %51, i32 noundef %53)
  %54 = load ptr, ptr %11, align 8
  %55 = icmp ne ptr %54, null
  br i1 %55, label %56, label %62

56:                                               ; preds = %32
  %57 = load ptr, ptr %10, align 8
  %58 = getelementptr inbounds %struct._asn1_ctx_t, ptr %57, i32 0, i32 4
  %59 = load ptr, ptr %58, align 8
  %60 = load i32, ptr @ett_packagename, align 4
  %61 = call ptr @proto_item_add_subtree(ptr noundef %59, i32 noundef %60)
  store ptr %61, ptr %14, align 8
  br label %62

62:                                               ; preds = %56, %32
  %63 = load ptr, ptr %14, align 8
  %64 = load i32, ptr @hf_h248_pkg_name, align 4
  %65 = load ptr, ptr %8, align 8
  %66 = load i32, ptr %9, align 4
  %67 = sub i32 %66, 4
  %68 = load i16, ptr %15, align 2
  %69 = zext i16 %68 to i32
  %70 = load ptr, ptr %17, align 8
  %71 = getelementptr inbounds %struct._h248_package_t, ptr %70, i32 0, i32 3
  %72 = load ptr, ptr %71, align 8
  %73 = call ptr @val_to_str_const(i32 noundef 0, ptr noundef %72, ptr noundef @.str.42)
  %74 = load i16, ptr %15, align 2
  %75 = zext i16 %74 to i32
  %76 = call ptr (ptr, i32, ptr, i32, i32, i32, ptr, ...) @proto_tree_add_uint_format(ptr noundef %63, i32 noundef %64, ptr noundef %65, i32 noundef %67, i32 noundef 2, i32 noundef %69, ptr noundef @.str.43, ptr noundef %73, i32 noundef %75)
  %77 = load ptr, ptr %17, align 8
  %78 = getelementptr inbounds %struct._h248_curr_info_t, ptr @curr_info, i32 0, i32 5
  store ptr %77, ptr %78, align 8
  %79 = load ptr, ptr %17, align 8
  %80 = getelementptr inbounds %struct._h248_package_t, ptr %79, i32 0, i32 9
  %81 = load ptr, ptr %80, align 8
  %82 = icmp ne ptr %81, null
  br i1 %82, label %83, label %111

83:                                               ; preds = %62
  %84 = load ptr, ptr %17, align 8
  %85 = getelementptr inbounds %struct._h248_package_t, ptr %84, i32 0, i32 9
  %86 = load ptr, ptr %85, align 8
  store ptr %86, ptr %18, align 8
  br label %87

87:                                               ; preds = %101, %83
  %88 = load ptr, ptr %18, align 8
  %89 = getelementptr inbounds %struct._h248_pkg_evt_t, ptr %88, i32 0, i32 1
  %90 = load ptr, ptr %89, align 8
  %91 = icmp ne ptr %90, null
  br i1 %91, label %92, label %104

92:                                               ; preds = %87
  %93 = load i16, ptr %16, align 2
  %94 = zext i16 %93 to i32
  %95 = load ptr, ptr %18, align 8
  %96 = getelementptr inbounds %struct._h248_pkg_evt_t, ptr %95, i32 0, i32 0
  %97 = load i32, ptr %96, align 8
  %98 = icmp eq i32 %94, %97
  br i1 %98, label %99, label %100

99:                                               ; preds = %92
  br label %104

100:                                              ; preds = %92
  br label %101

101:                                              ; preds = %100
  %102 = load ptr, ptr %18, align 8
  %103 = getelementptr %struct._h248_pkg_evt_t, ptr %102, i32 1
  store ptr %103, ptr %18, align 8
  br label %87, !llvm.loop !30

104:                                              ; preds = %99, %87
  %105 = load ptr, ptr %18, align 8
  %106 = getelementptr inbounds %struct._h248_pkg_evt_t, ptr %105, i32 0, i32 1
  %107 = load ptr, ptr %106, align 8
  %108 = icmp ne ptr %107, null
  br i1 %108, label %110, label %109

109:                                              ; preds = %104
  store ptr @no_event, ptr %18, align 8
  br label %110

110:                                              ; preds = %109, %104
  br label %112

111:                                              ; preds = %62
  store ptr @no_event, ptr %18, align 8
  br label %112

112:                                              ; preds = %111, %110
  %113 = load ptr, ptr %18, align 8
  %114 = getelementptr inbounds %struct._h248_curr_info_t, ptr @curr_info, i32 0, i32 6
  store ptr %113, ptr %114, align 8
  %115 = load ptr, ptr %14, align 8
  %116 = load i32, ptr @hf_h248_event_code, align 4
  %117 = load ptr, ptr %8, align 8
  %118 = load i32, ptr %9, align 4
  %119 = sub i32 %118, 2
  %120 = load i16, ptr %16, align 2
  %121 = zext i16 %120 to i32
  %122 = call ptr @proto_tree_add_uint(ptr noundef %115, i32 noundef %116, ptr noundef %117, i32 noundef %119, i32 noundef 2, i32 noundef %121)
  store ptr %122, ptr %19, align 8
  %123 = load ptr, ptr %17, align 8
  %124 = getelementptr inbounds %struct._h248_package_t, ptr %123, i32 0, i32 5
  %125 = load ptr, ptr %124, align 8
  %126 = icmp ne ptr %125, null
  br i1 %126, label %127, label %145

127:                                              ; preds = %112
  %128 = load i16, ptr %16, align 2
  %129 = zext i16 %128 to i32
  %130 = load ptr, ptr %17, align 8
  %131 = getelementptr inbounds %struct._h248_package_t, ptr %130, i32 0, i32 5
  %132 = load ptr, ptr %131, align 8
  %133 = call ptr @try_val_to_str(i32 noundef %129, ptr noundef %132)
  store ptr %133, ptr %20, align 8
  %134 = icmp ne ptr %133, null
  br i1 %134, label %135, label %145

135:                                              ; preds = %127
  %136 = load ptr, ptr %10, align 8
  %137 = getelementptr inbounds %struct._asn1_ctx_t, ptr %136, i32 0, i32 3
  %138 = load ptr, ptr %137, align 8
  %139 = getelementptr inbounds %struct._packet_info, ptr %138, i32 0, i32 50
  %140 = load ptr, ptr %139, align 8
  %141 = load ptr, ptr %20, align 8
  %142 = load i16, ptr %16, align 2
  %143 = zext i16 %142 to i32
  %144 = call noalias ptr (ptr, ptr, ...) @wmem_strdup_printf(ptr noundef %140, ptr noundef @.str.44, ptr noundef %141, i32 noundef %143)
  store ptr %144, ptr %20, align 8
  br label %154

145:                                              ; preds = %127, %112
  %146 = load ptr, ptr %10, align 8
  %147 = getelementptr inbounds %struct._asn1_ctx_t, ptr %146, i32 0, i32 3
  %148 = load ptr, ptr %147, align 8
  %149 = getelementptr inbounds %struct._packet_info, ptr %148, i32 0, i32 50
  %150 = load ptr, ptr %149, align 8
  %151 = load i16, ptr %16, align 2
  %152 = zext i16 %151 to i32
  %153 = call noalias ptr (ptr, ptr, ...) @wmem_strdup_printf(ptr noundef %150, ptr noundef @.str.45, i32 noundef %152)
  store ptr %153, ptr %20, align 8
  br label %154

154:                                              ; preds = %145, %135
  %155 = load ptr, ptr %19, align 8
  %156 = load ptr, ptr %20, align 8
  call void (ptr, ptr, ...) @proto_item_set_text(ptr noundef %155, ptr noundef @.str.1320, ptr noundef %156)
  br label %160

157:                                              ; preds = %6
  %158 = getelementptr inbounds %struct._h248_curr_info_t, ptr @curr_info, i32 0, i32 5
  store ptr @no_package, ptr %158, align 8
  %159 = getelementptr inbounds %struct._h248_curr_info_t, ptr @curr_info, i32 0, i32 6
  store ptr @no_event, ptr %159, align 8
  br label %160

160:                                              ; preds = %157, %154
  %161 = load i32, ptr %9, align 4
  ret i32 %161
}