; Function Attrs: nounwind uwtable
define internal i32 @dissect_h248_EventName(i1 noundef zeroext %0, ptr noundef %1, i32 noundef %2, ptr noundef %3, ptr noundef %4, i32 noundef %5) #0 {
  %7 = alloca ptr, align 8
  %8 = call i32 @dissect_ber_octet_string(i1 noundef zeroext %0, ptr noundef %3, ptr noundef %4, ptr noundef %1, i32 noundef %2, i32 noundef %5, ptr noundef nonnull %7) #7
  %9 = load ptr, ptr %7, align 8
  %.not = icmp eq ptr %9, null
  br i1 %.not, label %67, label %10

10:                                               ; preds = %6
  %11 = call zeroext i16 @tvb_get_ntohs(ptr noundef nonnull %9, i32 noundef 0) #7
  %12 = load ptr, ptr %7, align 8
  %13 = call zeroext i16 @tvb_get_ntohs(ptr noundef %12, i32 noundef 2) #7
  %14 = zext i16 %11 to i32
  %15 = shl nuw i32 %14, 16
  %16 = zext i16 %13 to i32
  %17 = or disjoint i32 %15, %16
  store i32 %17, ptr @packageandid, align 4
  %18 = load ptr, ptr @packages, align 8
  %19 = call ptr @wmem_tree_lookup32(ptr noundef %18, i32 noundef %14) #7
  %.not.i = icmp eq ptr %19, null
  br i1 %.not.i, label %find_package_id.exit, label %20

20:                                               ; preds = %10
  %21 = load ptr, ptr %19, align 8
  br label %find_package_id.exit

find_package_id.exit:                             ; preds = %10, %20
  %.0.i = phi ptr [ %21, %20 ], [ @no_package, %10 ]
  %22 = getelementptr inbounds nuw i8, ptr %3, i64 24
  %23 = load ptr, ptr %22, align 8
  %24 = getelementptr inbounds nuw i8, ptr %.0.i, i64 24
  %25 = load ptr, ptr %24, align 8
  %26 = call ptr @val_to_str_const(i32 noundef 0, ptr noundef %25, ptr noundef nonnull @.str.42) #7
  call void (ptr, ptr, ...) @proto_item_append_text(ptr noundef %23, ptr noundef nonnull @.str.41, ptr noundef %26, i32 noundef %14) #7
  %.not49 = icmp eq ptr %4, null
  br i1 %.not49, label %31, label %27

27:                                               ; preds = %find_package_id.exit
  %28 = load ptr, ptr %22, align 8
  %29 = load i32, ptr @ett_packagename, align 4
  %30 = call ptr @proto_item_add_subtree(ptr noundef %28, i32 noundef %29) #7
  br label %31

31:                                               ; preds = %27, %find_package_id.exit
  %.044 = phi ptr [ %30, %27 ], [ null, %find_package_id.exit ]
  %32 = load i32, ptr @hf_h248_pkg_name, align 4
  %33 = add i32 %8, -4
  %34 = load ptr, ptr %24, align 8
  %35 = call ptr @val_to_str_const(i32 noundef 0, ptr noundef %34, ptr noundef nonnull @.str.42) #7
  %36 = call ptr (ptr, i32, ptr, i32, i32, i32, ptr, ...) @proto_tree_add_uint_format(ptr noundef %.044, i32 noundef %32, ptr noundef %1, i32 noundef %33, i32 noundef 2, i32 noundef %14, ptr noundef nonnull @.str.43, ptr noundef %35, i32 noundef %14) #7
  store ptr %.0.i, ptr getelementptr inbounds nuw (i8, ptr @curr_info, i64 40), align 8
  %37 = getelementptr inbounds nuw i8, ptr %.0.i, i64 72
  %38 = load ptr, ptr %37, align 8
  %.not50 = icmp eq ptr %38, null
  br i1 %.not50, label %.loopexit, label %.preheader

.preheader:                                       ; preds = %31
  %39 = getelementptr inbounds nuw i8, ptr %38, i64 8
  %40 = load ptr, ptr %39, align 8
  %.not5155 = icmp eq ptr %40, null
  br i1 %.not5155, label %.loopexit, label %.lr.ph

.lr.ph:                                           ; preds = %.preheader, %43
  %.04356 = phi ptr [ %44, %43 ], [ %38, %.preheader ]
  %41 = load i32, ptr %.04356, align 8
  %42 = icmp eq i32 %41, %16
  br i1 %42, label %.loopexit, label %43

43:                                               ; preds = %.lr.ph
  %44 = getelementptr i8, ptr %.04356, i64 40
  %45 = getelementptr i8, ptr %.04356, i64 48
  %46 = load ptr, ptr %45, align 8
  %.not51 = icmp eq ptr %46, null
  br i1 %.not51, label %.loopexit, label %.lr.ph, !llvm.loop !30

.loopexit:                                        ; preds = %.lr.ph, %43, %.preheader, %31
  %.1 = phi ptr [ @no_event, %31 ], [ @no_event, %.preheader ], [ %.04356, %.lr.ph ], [ @no_event, %43 ]
  store ptr %.1, ptr getelementptr inbounds nuw (i8, ptr @curr_info, i64 48), align 8
  %47 = load i32, ptr @hf_h248_event_code, align 4
  %48 = add i32 %8, -2
  %49 = call ptr @proto_tree_add_uint(ptr noundef %.044, i32 noundef %47, ptr noundef %1, i32 noundef %48, i32 noundef 2, i32 noundef %16) #7
  %50 = getelementptr inbounds nuw i8, ptr %.0.i, i64 40
  %51 = load ptr, ptr %50, align 8
  %.not53 = icmp eq ptr %51, null
  br i1 %.not53, label %60, label %52

52:                                               ; preds = %.loopexit
  %53 = call ptr @try_val_to_str(i32 noundef %16, ptr noundef nonnull %51) #7
  %.not54 = icmp eq ptr %53, null
  br i1 %.not54, label %60, label %54

54:                                               ; preds = %52
  %55 = getelementptr inbounds nuw i8, ptr %3, i64 16
  %56 = load ptr, ptr %55, align 8
  %57 = getelementptr inbounds nuw i8, ptr %56, i64 408
  %58 = load ptr, ptr %57, align 8
  %59 = call noalias ptr (ptr, ptr, ...) @wmem_strdup_printf(ptr noundef %58, ptr noundef nonnull @.str.44, ptr noundef nonnull %53, i32 noundef %16) #7
  br label %66

60:                                               ; preds = %52, %.loopexit
  %61 = getelementptr inbounds nuw i8, ptr %3, i64 16
  %62 = load ptr, ptr %61, align 8
  %63 = getelementptr inbounds nuw i8, ptr %62, i64 408
  %64 = load ptr, ptr %63, align 8
  %65 = call noalias ptr (ptr, ptr, ...) @wmem_strdup_printf(ptr noundef %64, ptr noundef nonnull @.str.45, i32 noundef %16) #7
  br label %66

66:                                               ; preds = %60, %54
  %.0 = phi ptr [ %59, %54 ], [ %65, %60 ]
  call void (ptr, ptr, ...) @proto_item_set_text(ptr noundef %49, ptr noundef nonnull @.str.1320, ptr noundef %.0) #7
  br label %68

67:                                               ; preds = %6
  store ptr @no_package, ptr getelementptr inbounds nuw (i8, ptr @curr_info, i64 40), align 8
  store ptr @no_event, ptr getelementptr inbounds nuw (i8, ptr @curr_info, i64 48), align 8
  br label %68

68:                                               ; preds = %67, %66
  ret i32 %8
}